; Function Attrs: mustprogress uwtable
define dso_local void @_ZN5vcpkg4Json9stringifyB5cxx11ERKNS0_5ArrayE(ptr dead_on_unwind noalias nonnull writable sret(%"class.std::__cxx11::basic_string") align 8 %0, ptr nocapture noundef nonnull readonly align 8 dereferenceable(24) %1) local_unnamed_addr #8 personality ptr @__gxx_personality_v0 {
  %3 = alloca %"struct.vcpkg::Json::(anonymous namespace)::Stringifier", align 8
  call void @llvm.lifetime.start.p0(i64 24, ptr nonnull %3)
  tail call void @_ZNSt7__cxx1112basic_stringIcSt11char_traitsIcESaIcEEC1Ev(ptr noundef nonnull align 8 dereferenceable(32) %0) #26
  store i32 0, ptr %3, align 8, !noalias !207
  %.sroa.23.0..sroa_idx.i = getelementptr inbounds i8, ptr %3, i64 8
  store i64 2, ptr %.sroa.23.0..sroa_idx.i, align 8, !noalias !207
  %4 = getelementptr inbounds i8, ptr %3, i64 16
  store ptr %0, ptr %4, align 8, !noalias !207
  invoke fastcc void @_ZN5vcpkg4Json12_GLOBAL__N_111Stringifier15stringify_arrayERKNS0_5ArrayEm(ptr noundef nonnull align 8 dereferenceable(24) %3, ptr noundef nonnull align 8 dereferenceable(24) %1, i64 noundef 0)
          to label %5 unwind label %6

5:                                                ; preds = %2
  invoke void @_ZNSt7__cxx1112basic_stringIcSt11char_traitsIcESaIcEE9push_backEc(ptr noundef nonnull align 8 dereferenceable(32) %0, i8 noundef signext 10)
          to label %_ZN5vcpkg4Json9stringifyB5cxx11ERKNS0_5ArrayENS0_9JsonStyleE.exit unwind label %6

6:                                                ; preds = %5, %2
  %7 = landingpad { ptr, i32 }
          cleanup
  tail call void @_ZNSt7__cxx1112basic_stringIcSt11char_traitsIcESaIcEED1Ev(ptr noundef nonnull align 8 dereferenceable(32) %0) #26
  resume { ptr, i32 } %7

_ZN5vcpkg4Json9stringifyB5cxx11ERKNS0_5ArrayENS0_9JsonStyleE.exit: ; preds = %5
  call void @llvm.lifetime.end.p0(i64 24, ptr nonnull %3)
  ret void
}